; Function Attrs: inlinehint mustprogress nofree norecurse nosync nounwind willreturn memory(write, argmem: none, inaccessiblemem: none) uwtable
define internal void @"_ZZNSt9once_flag18_Prepare_executionC1IZSt9call_onceIZN10duckdb_re23RE24InitERKNS3_11StringPieceERKNS4_7OptionsEE3$_0JEEvRS_OT_DpOT0_EUlvE_EERSD_ENUlvE_8__invokeEv"() #24 align 2 personality ptr @__gxx_personality_v0 {
  store ptr getelementptr inbounds nuw (i8, ptr @_ZN10duckdb_re2L13empty_storageE, i64 16), ptr @_ZN10duckdb_re2L13empty_storageE, align 8, !tbaa !20
  store i64 0, ptr getelementptr inbounds nuw (i8, ptr @_ZN10duckdb_re2L13empty_storageE, i64 8), align 8, !tbaa !24
  store i8 0, ptr getelementptr inbounds nuw (i8, ptr @_ZN10duckdb_re2L13empty_storageE, i64 16), align 8, !tbaa !26
  store i32 0, ptr getelementptr inbounds nuw (i8, ptr @_ZN10duckdb_re2L13empty_storageE, i64 40), align 8, !tbaa !219
  store ptr null, ptr getelementptr inbounds nuw (i8, ptr @_ZN10duckdb_re2L13empty_storageE, i64 48), align 8, !tbaa !95
  store ptr getelementptr inbounds nuw (i8, ptr @_ZN10duckdb_re2L13empty_storageE, i64 40), ptr getelementptr inbounds nuw (i8, ptr @_ZN10duckdb_re2L13empty_storageE, i64 56), align 8, !tbaa !220
  store ptr getelementptr inbounds nuw (i8, ptr @_ZN10duckdb_re2L13empty_storageE, i64 40), ptr getelementptr inbounds nuw (i8, ptr @_ZN10duckdb_re2L13empty_storageE, i64 64), align 8, !tbaa !221
  store i64 0, ptr getelementptr inbounds nuw (i8, ptr @_ZN10duckdb_re2L13empty_storageE, i64 72), align 8, !tbaa !222
  store i32 0, ptr getelementptr inbounds nuw (i8, ptr @_ZN10duckdb_re2L13empty_storageE, i64 88), align 8, !tbaa !219
  store ptr null, ptr getelementptr inbounds nuw (i8, ptr @_ZN10duckdb_re2L13empty_storageE, i64 96), align 8, !tbaa !95
  store ptr getelementptr inbounds nuw (i8, ptr @_ZN10duckdb_re2L13empty_storageE, i64 88), ptr getelementptr inbounds nuw (i8, ptr @_ZN10duckdb_re2L13empty_storageE, i64 104), align 8, !tbaa !220
  store ptr getelementptr inbounds nuw (i8, ptr @_ZN10duckdb_re2L13empty_storageE, i64 88), ptr getelementptr inbounds nuw (i8, ptr @_ZN10duckdb_re2L13empty_storageE, i64 112), align 8, !tbaa !221
  store i64 0, ptr getelementptr inbounds nuw (i8, ptr @_ZN10duckdb_re2L13empty_storageE, i64 120), align 8, !tbaa !222
  ret void
}